target datalayout = "e-m:e-p270:32:32-p271:32:32-p272:64:64-i64:64-i128:128-f80:128-n8:16:32:64-S128"
target triple = "x86_64-pc-linux-gnu"

%struct.mbedtls_cipher_info_t = type { ptr, i32 }
%struct.mbedtls_cipher_context_t = type { ptr, i32, i32, ptr, ptr, [16 x i8], i64, [16 x i8], i64, ptr, ptr }

; Function Attrs: nounwind uwtable
define hidden i32 @mbedtls_cipher_check_tag(ptr noundef %0, ptr noundef %1, i64 noundef %2) #0 {
  %4 = alloca i32, align 4
  %5 = alloca ptr, align 8
  %6 = alloca ptr, align 8
  %7 = alloca i64, align 8
  %8 = alloca [16 x i8], align 16
  %9 = alloca i32, align 4
  %10 = alloca i32, align 4
  %11 = alloca i64, align 8
  store ptr %0, ptr %5, align 8, !tbaa !29
  store ptr %1, ptr %6, align 8, !tbaa !18
  store i64 %2, ptr %7, align 8, !tbaa !43
  call void @llvm.lifetime.start.p0(i64 16, ptr %8) #7
  call void @llvm.lifetime.start.p0(i64 4, ptr %9) #7
  store i32 -110, ptr %9, align 4, !tbaa !3
  %12 = load ptr, ptr %5, align 8, !tbaa !29
  %13 = getelementptr inbounds nuw %struct.mbedtls_cipher_context_t, ptr %12, i32 0, i32 0
  %14 = load ptr, ptr %13, align 8, !tbaa !36
  %15 = icmp eq ptr %14, null
  br i1 %15, label %16, label %17

16:                                               ; preds = %3
  store i32 -24832, ptr %4, align 4
  store i32 1, ptr %10, align 4
  br label %93

17:                                               ; preds = %3
  %18 = load ptr, ptr %5, align 8, !tbaa !29
  %19 = getelementptr inbounds nuw %struct.mbedtls_cipher_context_t, ptr %18, i32 0, i32 2
  %20 = load i32, ptr %19, align 4, !tbaa !40
  %21 = icmp ne i32 0, %20
  br i1 %21, label %22, label %23

22:                                               ; preds = %17
  store i32 -24832, ptr %4, align 4
  store i32 1, ptr %10, align 4
  br label %93

23:                                               ; preds = %17
  store i32 -24704, ptr %9, align 4, !tbaa !3
  %24 = load ptr, ptr %5, align 8, !tbaa !29
  %25 = getelementptr inbounds nuw %struct.mbedtls_cipher_context_t, ptr %24, i32 0, i32 0
  %26 = load ptr, ptr %25, align 8, !tbaa !36
  %27 = getelementptr inbounds nuw %struct.mbedtls_cipher_info_t, ptr %26, i32 0, i32 1
  %28 = load i32, ptr %27, align 8
  %29 = lshr i32 %28, 12
  %30 = and i32 %29, 15
  %31 = icmp eq i32 6, %30
  br i1 %31, label %32, label %57

32:                                               ; preds = %23
  call void @llvm.lifetime.start.p0(i64 8, ptr %11) #7
  %33 = load i64, ptr %7, align 8, !tbaa !43
  %34 = icmp ugt i64 %33, 16
  br i1 %34, label %35, label %36

35:                                               ; preds = %32
  store i32 -24832, ptr %4, align 4
  store i32 1, ptr %10, align 4
  br label %54

36:                                               ; preds = %32
  %37 = load ptr, ptr %5, align 8, !tbaa !29
  %38 = getelementptr inbounds nuw %struct.mbedtls_cipher_context_t, ptr %37, i32 0, i32 9
  %39 = load ptr, ptr %38, align 8, !tbaa !35
  %40 = getelementptr inbounds [16 x i8], ptr %8, i64 0, i64 0
  %41 = load i64, ptr %7, align 8, !tbaa !43
  %42 = call i32 @mbedtls_gcm_finish(ptr noundef %39, ptr noundef null, i64 noundef 0, ptr noundef %11, ptr noundef %40, i64 noundef %41)
  store i32 %42, ptr %9, align 4, !tbaa !3
  %43 = icmp ne i32 0, %42
  br i1 %43, label %44, label %46

44:                                               ; preds = %36
  %45 = load i32, ptr %9, align 4, !tbaa !3
  store i32 %45, ptr %4, align 4
  store i32 1, ptr %10, align 4
  br label %54

46:                                               ; preds = %36
  %47 = load ptr, ptr %6, align 8, !tbaa !18
  %48 = getelementptr inbounds [16 x i8], ptr %8, i64 0, i64 0
  %49 = load i64, ptr %7, align 8, !tbaa !43
  %50 = call i32 @mbedtls_ct_memcmp(ptr noundef %47, ptr noundef %48, i64 noundef %49)
  %51 = icmp ne i32 %50, 0
  br i1 %51, label %52, label %53

52:                                               ; preds = %46
  store i32 -25344, ptr %9, align 4, !tbaa !3
  store i32 2, ptr %10, align 4
  br label %54

53:                                               ; preds = %46
  store i32 0, ptr %10, align 4
  br label %54

54:                                               ; preds = %52, %53, %44, %35
  call void @llvm.lifetime.end.p0(i64 8, ptr %11) #7
  %55 = load i32, ptr %10, align 4
  switch i32 %55, label %93 [
    i32 0, label %56
    i32 2, label %89
  ]

56:                                               ; preds = %54
  br label %57

57:                                               ; preds = %56, %23
  %58 = load ptr, ptr %5, align 8, !tbaa !29
  %59 = getelementptr inbounds nuw %struct.mbedtls_cipher_context_t, ptr %58, i32 0, i32 0
  %60 = load ptr, ptr %59, align 8, !tbaa !36
  %61 = getelementptr inbounds nuw %struct.mbedtls_cipher_info_t, ptr %60, i32 0, i32 1
  %62 = load i32, ptr %61, align 8
  %63 = lshr i32 %62, 16
  %64 = and i32 %63, 255
  %65 = icmp eq i32 77, %64
  br i1 %65, label %66, label %88

66:                                               ; preds = %57
  %67 = load i64, ptr %7, align 8, !tbaa !43
  %68 = icmp ne i64 %67, 16
  br i1 %68, label %69, label %70

69:                                               ; preds = %66
  store i32 -24832, ptr %4, align 4
  store i32 1, ptr %10, align 4
  br label %93

70:                                               ; preds = %66
  %71 = load ptr, ptr %5, align 8, !tbaa !29
  %72 = getelementptr inbounds nuw %struct.mbedtls_cipher_context_t, ptr %71, i32 0, i32 9
  %73 = load ptr, ptr %72, align 8, !tbaa !35
  %74 = getelementptr inbounds [16 x i8], ptr %8, i64 0, i64 0
  %75 = call i32 @mbedtls_chachapoly_finish(ptr noundef %73, ptr noundef %74)
  store i32 %75, ptr %9, align 4, !tbaa !3
  %76 = load i32, ptr %9, align 4, !tbaa !3
  %77 = icmp ne i32 %76, 0
  br i1 %77, label %78, label %80

78:                                               ; preds = %70
  %79 = load i32, ptr %9, align 4, !tbaa !3
  store i32 %79, ptr %4, align 4
  store i32 1, ptr %10, align 4
  br label %93

80:                                               ; preds = %70
  %81 = load ptr, ptr %6, align 8, !tbaa !18
  %82 = getelementptr inbounds [16 x i8], ptr %8, i64 0, i64 0
  %83 = load i64, ptr %7, align 8, !tbaa !43
  %84 = call i32 @mbedtls_ct_memcmp(ptr noundef %81, ptr noundef %82, i64 noundef %83)
  %85 = icmp ne i32 %84, 0
  br i1 %85, label %86, label %87

86:                                               ; preds = %80
  store i32 -25344, ptr %9, align 4, !tbaa !3
  br label %89

87:                                               ; preds = %80
  br label %88

88:                                               ; preds = %87, %57
  br label %89

89:                                               ; preds = %88, %54, %86
  %90 = getelementptr inbounds [16 x i8], ptr %8, i64 0, i64 0
  %91 = load i64, ptr %7, align 8, !tbaa !43
  call void @mbedtls_platform_zeroize(ptr noundef %90, i64 noundef %91)
  %92 = load i32, ptr %9, align 4, !tbaa !3
  store i32 %92, ptr %4, align 4
  store i32 1, ptr %10, align 4
  br label %93

93:                                               ; preds = %89, %78, %69, %54, %22, %16
  call void @llvm.lifetime.end.p0(i64 4, ptr %9) #7
  call void @llvm.lifetime.end.p0(i64 16, ptr %8) #7
  %94 = load i32, ptr %4, align 4
  ret i32 %94
}