; Function Attrs: nounwind uwtable
define hidden i32 @mbedtls_cipher_check_tag(ptr noundef readonly captures(none) %0, ptr noundef %1, i64 noundef %2) local_unnamed_addr #8 {
  %4 = alloca [16 x i8], align 16
  %5 = alloca i64, align 8
  call void @llvm.lifetime.start.p0(i64 16, ptr nonnull %4) #15
  %6 = load ptr, ptr %0, align 8, !tbaa !29
  %7 = icmp eq ptr %6, null
  br i1 %7, label %36, label %8

8:                                                ; preds = %3
  %9 = getelementptr inbounds nuw i8, ptr %0, i64 12
  %10 = load i32, ptr %9, align 4, !tbaa !33
  %.not = icmp eq i32 %10, 0
  br i1 %.not, label %11, label %36

11:                                               ; preds = %8
  %12 = getelementptr inbounds nuw i8, ptr %6, i64 8
  %13 = load i32, ptr %12, align 8
  %14 = and i32 %13, 61440
  %15 = icmp eq i32 %14, 24576
  br i1 %15, label %16, label %24

16:                                               ; preds = %11
  call void @llvm.lifetime.start.p0(i64 8, ptr nonnull %5) #15
  %17 = icmp ugt i64 %2, 16
  br i1 %17, label %.thread, label %18

18:                                               ; preds = %16
  %19 = getelementptr inbounds nuw i8, ptr %0, i64 80
  %20 = load ptr, ptr %19, align 8, !tbaa !28
  %21 = call i32 @mbedtls_gcm_finish(ptr noundef %20, ptr noundef null, i64 noundef 0, ptr noundef nonnull %5, ptr noundef nonnull %4, i64 noundef %2) #15
  %.not29 = icmp eq i32 %21, 0
  br i1 %.not29, label %22, label %.thread

22:                                               ; preds = %18
  %23 = call i32 @mbedtls_ct_memcmp(ptr noundef %1, ptr noundef nonnull %4, i64 noundef %2) #15
  %.not30 = icmp eq i32 %23, 0
  call void @llvm.lifetime.end.p0(i64 8, ptr nonnull %5) #15
  br i1 %.not30, label %.thread38, label %35

.thread38:                                        ; preds = %22
  %.pre = load ptr, ptr %0, align 8, !tbaa !29
  %.phi.trans.insert = getelementptr inbounds nuw i8, ptr %.pre, i64 8
  %.pre42 = load i32, ptr %.phi.trans.insert, align 8
  br label %24

.thread:                                          ; preds = %16, %18
  %.121.ph = phi i32 [ %21, %18 ], [ -24832, %16 ]
  call void @llvm.lifetime.end.p0(i64 8, ptr nonnull %5) #15
  br label %36

24:                                               ; preds = %.thread38, %11
  %25 = phi i32 [ %13, %11 ], [ %.pre42, %.thread38 ]
  %.019 = phi i32 [ -24704, %11 ], [ 0, %.thread38 ]
  %26 = and i32 %25, 16711680
  %27 = icmp eq i32 %26, 5046272
  br i1 %27, label %28, label %35

28:                                               ; preds = %24
  %.not31 = icmp eq i64 %2, 16
  br i1 %.not31, label %29, label %36

29:                                               ; preds = %28
  %30 = getelementptr inbounds nuw i8, ptr %0, i64 80
  %31 = load ptr, ptr %30, align 8, !tbaa !28
  %32 = call i32 @mbedtls_chachapoly_finish(ptr noundef %31, ptr noundef nonnull %4) #15
  %.not32 = icmp eq i32 %32, 0
  br i1 %.not32, label %33, label %36

33:                                               ; preds = %29
  %34 = call i32 @mbedtls_ct_memcmp(ptr noundef %1, ptr noundef nonnull %4, i64 noundef 16) #15
  %.not33 = icmp eq i32 %34, 0
  %spec.select = select i1 %.not33, i32 0, i32 -25344
  br label %35

35:                                               ; preds = %22, %33, %24
  %.2 = phi i32 [ %.019, %24 ], [ %spec.select, %33 ], [ -25344, %22 ]
  call void @mbedtls_platform_zeroize(ptr noundef nonnull %4, i64 noundef %2) #15
  br label %36

36:                                               ; preds = %.thread, %29, %28, %8, %3, %35
  %.020 = phi i32 [ %.2, %35 ], [ -24832, %3 ], [ -24832, %8 ], [ -24832, %28 ], [ %32, %29 ], [ %.121.ph, %.thread ]
  call void @llvm.lifetime.end.p0(i64 16, ptr nonnull %4) #15
  ret i32 %.020
}